target datalayout = "e-m:e-p270:32:32-p271:32:32-p272:64:64-i64:64-i128:128-f80:128-n8:16:32:64-S128"
target triple = "x86_64-pc-linux-gnu"

%struct.TuplesortPublic = type { ptr, ptr, ptr, ptr, ptr, ptr, ptr, ptr, ptr, i8, i32, ptr, ptr, i32, i8, ptr }
%struct.SortSupportData = type { ptr, i32, i8, i8, i16, ptr, ptr, i8, ptr, ptr, ptr }

@trace_sort = external global i8, align 1
@.str = private unnamed_addr constant [62 x i8] c"begin tuple sort: nkeys = %d, workMem = %d, randomAccess = %c\00", align 1
@.str.1 = private unnamed_addr constant [20 x i8] c"tuplesortvariants.c\00", align 1
@__func__.tuplesort_begin_heap = private unnamed_addr constant [21 x i8] c"tuplesort_begin_heap\00", align 1
@CurrentMemoryContext = external global ptr, align 8

; Function Attrs: inlinehint nounwind uwtable
define internal ptr @MemoryContextSwitchTo(ptr noundef %0) #3 {
  %2 = alloca ptr, align 8
  %3 = alloca ptr, align 8
  store ptr %0, ptr %2, align 8
  call void @llvm.lifetime.start.p0(i64 8, ptr %3) #6
  %4 = load ptr, ptr @CurrentMemoryContext, align 8
  store ptr %4, ptr %3, align 8
  %5 = load ptr, ptr %2, align 8
  store ptr %5, ptr @CurrentMemoryContext, align 8
  %6 = load ptr, ptr %3, align 8
  call void @llvm.lifetime.end.p0(i64 8, ptr %3) #6
  ret ptr %6
}

; Function Attrs: nounwind uwtable
define dso_local ptr @tuplesort_begin_heap(ptr noundef %0, i32 noundef %1, ptr noundef %2, ptr noundef %3, ptr noundef %4, ptr noundef %5, i32 noundef %6, ptr noundef %7, i32 noundef %8) #0 {
  %10 = alloca ptr, align 8
  %11 = alloca i32, align 4
  %12 = alloca ptr, align 8
  %13 = alloca ptr, align 8
  %14 = alloca ptr, align 8
  %15 = alloca ptr, align 8
  %16 = alloca i32, align 4
  %17 = alloca ptr, align 8
  %18 = alloca i32, align 4
  %19 = alloca ptr, align 8
  %20 = alloca ptr, align 8
  %21 = alloca ptr, align 8
  %22 = alloca i32, align 4
  %23 = alloca ptr, align 8
  store ptr %0, ptr %10, align 8
  store i32 %1, ptr %11, align 4
  store ptr %2, ptr %12, align 8
  store ptr %3, ptr %13, align 8
  store ptr %4, ptr %14, align 8
  store ptr %5, ptr %15, align 8
  store i32 %6, ptr %16, align 4
  store ptr %7, ptr %17, align 8
  store i32 %8, ptr %18, align 4
  call void @llvm.lifetime.start.p0(i64 8, ptr %19) #6
  %24 = load i32, ptr %16, align 4
  %25 = load ptr, ptr %17, align 8
  %26 = load i32, ptr %18, align 4
  %27 = call ptr @tuplesort_begin_common(i32 noundef %24, ptr noundef %25, i32 noundef %26)
  store ptr %27, ptr %19, align 8
  call void @llvm.lifetime.start.p0(i64 8, ptr %20) #6
  %28 = load ptr, ptr %19, align 8
  store ptr %28, ptr %20, align 8
  call void @llvm.lifetime.start.p0(i64 8, ptr %21) #6
  call void @llvm.lifetime.start.p0(i64 4, ptr %22) #6
  %29 = load ptr, ptr %20, align 8
  %30 = getelementptr inbounds nuw %struct.TuplesortPublic, ptr %29, i32 0, i32 6
  %31 = load ptr, ptr %30, align 8
  %32 = call ptr @MemoryContextSwitchTo(ptr noundef %31)
  store ptr %32, ptr %21, align 8
  %33 = load i8, ptr @trace_sort, align 1, !range !4, !noundef !5
  %34 = trunc i8 %33 to i1
  br i1 %34, label %35, label %52

35:                                               ; preds = %9
  br label %36

36:                                               ; preds = %35
  br i1 false, label %37, label %39

37:                                               ; preds = %36
  %38 = call zeroext i1 @errstart_cold(i32 noundef 15, ptr noundef null) #7
  br i1 %38, label %41, label %49

39:                                               ; preds = %36
  %40 = call zeroext i1 @errstart(i32 noundef 15, ptr noundef null)
  br i1 %40, label %41, label %49

41:                                               ; preds = %39, %37
  %42 = load i32, ptr %11, align 4
  %43 = load i32, ptr %16, align 4
  %44 = load i32, ptr %18, align 4
  %45 = and i32 %44, 1
  %46 = icmp ne i32 %45, 0
  %47 = select i1 %46, i32 116, i32 102
  %48 = call i32 (ptr, ...) @errmsg_internal(ptr noundef @.str, i32 noundef %42, i32 noundef %43, i32 noundef %47)
  call void @errfinish(ptr noundef @.str.1, i32 noundef 187, ptr noundef @__func__.tuplesort_begin_heap)
  br label %49

49:                                               ; preds = %41, %39, %37
  br label %50

50:                                               ; preds = %49
  br label %51

51:                                               ; preds = %50
  br label %52

52:                                               ; preds = %51, %9
  %53 = load i32, ptr %11, align 4
  %54 = load ptr, ptr %20, align 8
  %55 = getelementptr inbounds nuw %struct.TuplesortPublic, ptr %54, i32 0, i32 10
  store i32 %53, ptr %55, align 4
  br label %56

56:                                               ; preds = %52
  br label %57

57:                                               ; preds = %56
  br label %58

58:                                               ; preds = %57
  %59 = load ptr, ptr %20, align 8
  %60 = getelementptr inbounds nuw %struct.TuplesortPublic, ptr %59, i32 0, i32 2
  store ptr @removeabbrev_heap, ptr %60, align 8
  %61 = load ptr, ptr %20, align 8
  %62 = getelementptr inbounds nuw %struct.TuplesortPublic, ptr %61, i32 0, i32 0
  store ptr @comparetup_heap, ptr %62, align 8
  %63 = load ptr, ptr %20, align 8
  %64 = getelementptr inbounds nuw %struct.TuplesortPublic, ptr %63, i32 0, i32 1
  store ptr @comparetup_heap_tiebreak, ptr %64, align 8
  %65 = load ptr, ptr %20, align 8
  %66 = getelementptr inbounds nuw %struct.TuplesortPublic, ptr %65, i32 0, i32 3
  store ptr @writetup_heap, ptr %66, align 8
  %67 = load ptr, ptr %20, align 8
  %68 = getelementptr inbounds nuw %struct.TuplesortPublic, ptr %67, i32 0, i32 4
  store ptr @readtup_heap, ptr %68, align 8
  %69 = load ptr, ptr %20, align 8
  %70 = getelementptr inbounds nuw %struct.TuplesortPublic, ptr %69, i32 0, i32 9
  store i8 1, ptr %70, align 8
  %71 = load ptr, ptr %10, align 8
  %72 = load ptr, ptr %20, align 8
  %73 = getelementptr inbounds nuw %struct.TuplesortPublic, ptr %72, i32 0, i32 15
  store ptr %71, ptr %73, align 8
  %74 = load i32, ptr %11, align 4
  %75 = sext i32 %74 to i64
  %76 = mul i64 %75, 64
  %77 = call ptr @palloc0(i64 noundef %76)
  %78 = load ptr, ptr %20, align 8
  %79 = getelementptr inbounds nuw %struct.TuplesortPublic, ptr %78, i32 0, i32 11
  store ptr %77, ptr %79, align 8
  store i32 0, ptr %22, align 4
  br label %80

80:                                               ; preds = %135, %58
  %81 = load i32, ptr %22, align 4
  %82 = load i32, ptr %11, align 4
  %83 = icmp slt i32 %81, %82
  br i1 %83, label %84, label %138

84:                                               ; preds = %80
  call void @llvm.lifetime.start.p0(i64 8, ptr %23) #6
  %85 = load ptr, ptr %20, align 8
  %86 = getelementptr inbounds nuw %struct.TuplesortPublic, ptr %85, i32 0, i32 11
  %87 = load ptr, ptr %86, align 8
  %88 = load i32, ptr %22, align 4
  %89 = sext i32 %88 to i64
  %90 = getelementptr inbounds %struct.SortSupportData, ptr %87, i64 %89
  store ptr %90, ptr %23, align 8
  %91 = load ptr, ptr @CurrentMemoryContext, align 8
  %92 = load ptr, ptr %23, align 8
  %93 = getelementptr inbounds nuw %struct.SortSupportData, ptr %92, i32 0, i32 0
  store ptr %91, ptr %93, align 8
  %94 = load ptr, ptr %14, align 8
  %95 = load i32, ptr %22, align 4
  %96 = sext i32 %95 to i64
  %97 = getelementptr inbounds i32, ptr %94, i64 %96
  %98 = load i32, ptr %97, align 4
  %99 = load ptr, ptr %23, align 8
  %100 = getelementptr inbounds nuw %struct.SortSupportData, ptr %99, i32 0, i32 1
  store i32 %98, ptr %100, align 8
  %101 = load ptr, ptr %15, align 8
  %102 = load i32, ptr %22, align 4
  %103 = sext i32 %102 to i64
  %104 = getelementptr inbounds i8, ptr %101, i64 %103
  %105 = load i8, ptr %104, align 1, !range !4, !noundef !5
  %106 = trunc i8 %105 to i1
  %107 = load ptr, ptr %23, align 8
  %108 = getelementptr inbounds nuw %struct.SortSupportData, ptr %107, i32 0, i32 3
  %109 = zext i1 %106 to i8
  store i8 %109, ptr %108, align 1
  %110 = load ptr, ptr %12, align 8
  %111 = load i32, ptr %22, align 4
  %112 = sext i32 %111 to i64
  %113 = getelementptr inbounds i16, ptr %110, i64 %112
  %114 = load i16, ptr %113, align 2
  %115 = load ptr, ptr %23, align 8
  %116 = getelementptr inbounds nuw %struct.SortSupportData, ptr %115, i32 0, i32 4
  store i16 %114, ptr %116, align 2
  %117 = load i32, ptr %22, align 4
  %118 = icmp eq i32 %117, 0
  br i1 %118, label %119, label %124

119:                                              ; preds = %84
  %120 = load ptr, ptr %20, align 8
  %121 = getelementptr inbounds nuw %struct.TuplesortPublic, ptr %120, i32 0, i32 9
  %122 = load i8, ptr %121, align 8, !range !4, !noundef !5
  %123 = trunc i8 %122 to i1
  br label %124

124:                                              ; preds = %119, %84
  %125 = phi i1 [ false, %84 ], [ %123, %119 ]
  %126 = load ptr, ptr %23, align 8
  %127 = getelementptr inbounds nuw %struct.SortSupportData, ptr %126, i32 0, i32 7
  %128 = zext i1 %125 to i8
  store i8 %128, ptr %127, align 8
  %129 = load ptr, ptr %13, align 8
  %130 = load i32, ptr %22, align 4
  %131 = sext i32 %130 to i64
  %132 = getelementptr inbounds i32, ptr %129, i64 %131
  %133 = load i32, ptr %132, align 4
  %134 = load ptr, ptr %23, align 8
  call void @PrepareSortSupportFromOrderingOp(i32 noundef %133, ptr noundef %134)
  call void @llvm.lifetime.end.p0(i64 8, ptr %23) #6
  br label %135

135:                                              ; preds = %124
  %136 = load i32, ptr %22, align 4
  %137 = add i32 %136, 1
  store i32 %137, ptr %22, align 4
  br label %80, !llvm.loop !6

138:                                              ; preds = %80
  %139 = load i32, ptr %11, align 4
  %140 = icmp eq i32 %139, 1
  br i1 %140, label %141, label %154

141:                                              ; preds = %138
  %142 = load ptr, ptr %20, align 8
  %143 = getelementptr inbounds nuw %struct.TuplesortPublic, ptr %142, i32 0, i32 11
  %144 = load ptr, ptr %143, align 8
  %145 = getelementptr inbounds nuw %struct.SortSupportData, ptr %144, i32 0, i32 8
  %146 = load ptr, ptr %145, align 8
  %147 = icmp ne ptr %146, null
  br i1 %147, label %154, label %148

148:                                              ; preds = %141
  %149 = load ptr, ptr %20, align 8
  %150 = getelementptr inbounds nuw %struct.TuplesortPublic, ptr %149, i32 0, i32 11
  %151 = load ptr, ptr %150, align 8
  %152 = load ptr, ptr %20, align 8
  %153 = getelementptr inbounds nuw %struct.TuplesortPublic, ptr %152, i32 0, i32 12
  store ptr %151, ptr %153, align 8
  br label %154

154:                                              ; preds = %148, %141, %138
  %155 = load ptr, ptr %21, align 8
  %156 = call ptr @MemoryContextSwitchTo(ptr noundef %155)
  %157 = load ptr, ptr %19, align 8
  call void @llvm.lifetime.end.p0(i64 4, ptr %22) #6
  call void @llvm.lifetime.end.p0(i64 8, ptr %21) #6
  call void @llvm.lifetime.end.p0(i64 8, ptr %20) #6
  call void @llvm.lifetime.end.p0(i64 8, ptr %19) #6
  ret ptr %157
}