; Function Attrs: nounwind uwtable
define dso_local ptr @tuplesort_begin_heap(ptr noundef %0, i32 noundef %1, ptr noundef readonly captures(none) %2, ptr noundef readonly captures(none) %3, ptr noundef readonly captures(none) %4, ptr noundef readonly captures(none) %5, i32 noundef %6, ptr noundef %7, i32 noundef %8) local_unnamed_addr #0 {
  %10 = tail call ptr @tuplesort_begin_common(i32 noundef %6, ptr noundef %7, i32 noundef %8) #12
  %11 = getelementptr inbounds nuw i8, ptr %10, i64 48
  %12 = load ptr, ptr %11, align 8
  %13 = load ptr, ptr @CurrentMemoryContext, align 8
  store ptr %12, ptr @CurrentMemoryContext, align 8
  %14 = load i8, ptr @trace_sort, align 1, !range !4, !noundef !5
  %15 = trunc nuw i8 %14 to i1
  br i1 %15, label %16, label %22

16:                                               ; preds = %9
  %17 = tail call zeroext i1 @errstart(i32 noundef 15, ptr noundef null) #12
  br i1 %17, label %18, label %22

18:                                               ; preds = %16
  %19 = and i32 %8, 1
  %.not = icmp eq i32 %19, 0
  %20 = select i1 %.not, i32 102, i32 116
  %21 = tail call i32 (ptr, ...) @errmsg_internal(ptr noundef nonnull @.str, i32 noundef %1, i32 noundef %6, i32 noundef %20) #12
  tail call void @errfinish(ptr noundef nonnull @.str.1, i32 noundef 187, ptr noundef nonnull @__func__.tuplesort_begin_heap) #12
  br label %22

22:                                               ; preds = %16, %18, %9
  %23 = getelementptr inbounds nuw i8, ptr %10, i64 76
  store i32 %1, ptr %23, align 4
  %24 = getelementptr inbounds nuw i8, ptr %10, i64 16
  store ptr @removeabbrev_heap, ptr %24, align 8
  store ptr @comparetup_heap, ptr %10, align 8
  %25 = getelementptr inbounds nuw i8, ptr %10, i64 8
  store ptr @comparetup_heap_tiebreak, ptr %25, align 8
  %26 = getelementptr inbounds nuw i8, ptr %10, i64 24
  store ptr @writetup_heap, ptr %26, align 8
  %27 = getelementptr inbounds nuw i8, ptr %10, i64 32
  store ptr @readtup_heap, ptr %27, align 8
  %28 = getelementptr inbounds nuw i8, ptr %10, i64 72
  store i8 1, ptr %28, align 8
  %29 = getelementptr inbounds nuw i8, ptr %10, i64 104
  store ptr %0, ptr %29, align 8
  %30 = sext i32 %1 to i64
  %31 = shl nsw i64 %30, 6
  %32 = tail call ptr @palloc0(i64 noundef %31) #12
  %33 = getelementptr inbounds nuw i8, ptr %10, i64 80
  store ptr %32, ptr %33, align 8
  %34 = icmp sgt i32 %1, 0
  br i1 %34, label %.lr.ph.preheader, label %._crit_edge.thread

.lr.ph.preheader:                                 ; preds = %22
  %wide.trip.count = zext nneg i32 %1 to i64
  br label %.lr.ph

.lr.ph:                                           ; preds = %.lr.ph.preheader, %50
  %indvars.iv = phi i64 [ 0, %.lr.ph.preheader ], [ %indvars.iv.next, %50 ]
  %35 = load ptr, ptr %33, align 8
  %36 = getelementptr inbounds nuw %struct.SortSupportData, ptr %35, i64 %indvars.iv
  %37 = load ptr, ptr @CurrentMemoryContext, align 8
  store ptr %37, ptr %36, align 8
  %38 = getelementptr inbounds nuw i32, ptr %4, i64 %indvars.iv
  %39 = load i32, ptr %38, align 4
  %40 = getelementptr inbounds nuw i8, ptr %36, i64 8
  store i32 %39, ptr %40, align 8
  %41 = getelementptr inbounds nuw i8, ptr %5, i64 %indvars.iv
  %42 = load i8, ptr %41, align 1, !range !4, !noundef !5
  %43 = getelementptr inbounds nuw i8, ptr %36, i64 13
  store i8 %42, ptr %43, align 1
  %44 = getelementptr inbounds nuw i16, ptr %2, i64 %indvars.iv
  %45 = load i16, ptr %44, align 2
  %46 = getelementptr inbounds nuw i8, ptr %36, i64 14
  store i16 %45, ptr %46, align 2
  %47 = icmp eq i64 %indvars.iv, 0
  br i1 %47, label %48, label %50

48:                                               ; preds = %.lr.ph
  %49 = load i8, ptr %28, align 8, !range !4, !noundef !5
  br label %50

50:                                               ; preds = %48, %.lr.ph
  %51 = phi i8 [ 0, %.lr.ph ], [ %49, %48 ]
  %52 = getelementptr inbounds nuw i8, ptr %36, i64 32
  store i8 %51, ptr %52, align 8
  %53 = getelementptr inbounds nuw i32, ptr %3, i64 %indvars.iv
  %54 = load i32, ptr %53, align 4
  tail call void @PrepareSortSupportFromOrderingOp(i32 noundef %54, ptr noundef nonnull %36) #12
  %indvars.iv.next = add nuw nsw i64 %indvars.iv, 1
  %exitcond.not = icmp eq i64 %indvars.iv.next, %wide.trip.count
  br i1 %exitcond.not, label %._crit_edge, label %.lr.ph, !llvm.loop !6

._crit_edge:                                      ; preds = %50
  %55 = icmp eq i32 %1, 1
  br i1 %55, label %56, label %._crit_edge.thread

56:                                               ; preds = %._crit_edge
  %57 = load ptr, ptr %33, align 8
  %58 = getelementptr inbounds nuw i8, ptr %57, i64 40
  %59 = load ptr, ptr %58, align 8
  %.not47 = icmp eq ptr %59, null
  br i1 %.not47, label %60, label %._crit_edge.thread

60:                                               ; preds = %56
  %61 = getelementptr inbounds nuw i8, ptr %10, i64 88
  store ptr %57, ptr %61, align 8
  br label %._crit_edge.thread

._crit_edge.thread:                               ; preds = %22, %60, %56, %._crit_edge
  store ptr %13, ptr @CurrentMemoryContext, align 8
  ret ptr %10
}